; Function Attrs: mustprogress uwtable
define dso_local noundef zeroext i1 @_ZNK27cmCMakePresetsGraphInternal15EqualsCondition8EvaluateERKSt6vectorISt10unique_ptrINS_13MacroExpanderESt14default_deleteIS3_EESaIS6_EEiRSt8optionalIbE(ptr noundef nonnull align 8 dereferenceable(72) %0, ptr nocapture noundef nonnull readonly align 8 dereferenceable(24) %1, i32 noundef %2, ptr nocapture noundef nonnull align 1 dereferenceable(2) %3) unnamed_addr #3 align 2 personality ptr @__gxx_personality_v0 {
  %5 = alloca %"class.std::__cxx11::basic_string", align 8
  %6 = alloca %"class.std::__cxx11::basic_string", align 8
  %7 = getelementptr inbounds i8, ptr %0, i64 8
  call void @_ZNSt7__cxx1112basic_stringIcSt11char_traitsIcESaIcEEC1ERKS4_(ptr noundef nonnull align 8 dereferenceable(32) %5, ptr noundef nonnull align 8 dereferenceable(32) %7)
  %8 = invoke noundef i32 @_ZN27cmCMakePresetsGraphInternal12ExpandMacrosERNSt7__cxx1112basic_stringIcSt11char_traitsIcESaIcEEERKSt6vectorISt10unique_ptrINS_13MacroExpanderESt14default_deleteIS9_EESaISC_EEi(ptr noundef nonnull align 8 dereferenceable(32) %5, ptr noundef nonnull align 8 dereferenceable(24) %1, i32 noundef %2)
          to label %9 unwind label %10

9:                                                ; preds = %4
  switch i32 %8, label %17 [
    i32 2, label %_ZNSt8optionalIbE5resetEv.exit
    i32 1, label %12
  ]

10:                                               ; preds = %17, %4
  %11 = landingpad { ptr, i32 }
          cleanup
  br label %42

12:                                               ; preds = %9
  %13 = getelementptr inbounds i8, ptr %3, i64 1
  %14 = load i8, ptr %13, align 1
  %15 = and i8 %14, 1
  %.not.i.i.i = icmp eq i8 %15, 0
  br i1 %.not.i.i.i, label %_ZNSt8optionalIbE5resetEv.exit, label %16

16:                                               ; preds = %12
  store i8 0, ptr %13, align 1
  br label %_ZNSt8optionalIbE5resetEv.exit

17:                                               ; preds = %9
  %18 = getelementptr inbounds i8, ptr %0, i64 40
  invoke void @_ZNSt7__cxx1112basic_stringIcSt11char_traitsIcESaIcEEC1ERKS4_(ptr noundef nonnull align 8 dereferenceable(32) %6, ptr noundef nonnull align 8 dereferenceable(32) %18)
          to label %19 unwind label %10

19:                                               ; preds = %17
  %20 = invoke noundef i32 @_ZN27cmCMakePresetsGraphInternal12ExpandMacrosERNSt7__cxx1112basic_stringIcSt11char_traitsIcESaIcEEERKSt6vectorISt10unique_ptrINS_13MacroExpanderESt14default_deleteIS9_EESaISC_EEi(ptr noundef nonnull align 8 dereferenceable(32) %6, ptr noundef nonnull align 8 dereferenceable(24) %1, i32 noundef %2)
          to label %21 unwind label %22

21:                                               ; preds = %19
  switch i32 %20, label %29 [
    i32 2, label %_ZNSt8optionalIbE5resetEv.exit14
    i32 1, label %24
  ]

22:                                               ; preds = %19
  %23 = landingpad { ptr, i32 }
          cleanup
  call void @_ZNSt7__cxx1112basic_stringIcSt11char_traitsIcESaIcEED1Ev(ptr noundef nonnull align 8 dereferenceable(32) %6) #20
  br label %42

24:                                               ; preds = %21
  %25 = getelementptr inbounds i8, ptr %3, i64 1
  %26 = load i8, ptr %25, align 1
  %27 = and i8 %26, 1
  %.not.i.i.i13 = icmp eq i8 %27, 0
  br i1 %.not.i.i.i13, label %_ZNSt8optionalIbE5resetEv.exit14, label %28

28:                                               ; preds = %24
  store i8 0, ptr %25, align 1
  br label %_ZNSt8optionalIbE5resetEv.exit14

29:                                               ; preds = %21
  %30 = call noundef i64 @_ZNKSt7__cxx1112basic_stringIcSt11char_traitsIcESaIcEE4sizeEv(ptr noundef nonnull align 8 dereferenceable(32) %5) #20
  %31 = call noundef i64 @_ZNKSt7__cxx1112basic_stringIcSt11char_traitsIcESaIcEE4sizeEv(ptr noundef nonnull align 8 dereferenceable(32) %6) #20
  %32 = icmp eq i64 %30, %31
  br i1 %32, label %33, label %_ZSteqIcEN9__gnu_cxx11__enable_ifIXsr9__is_charIT_EE7__valueEbE6__typeERKNSt7__cxx1112basic_stringIS2_St11char_traitsIS2_ESaIS2_EEESC_.exit

33:                                               ; preds = %29
  %34 = call noundef ptr @_ZNKSt7__cxx1112basic_stringIcSt11char_traitsIcESaIcEE4dataEv(ptr noundef nonnull align 8 dereferenceable(32) %5) #20
  %35 = call noundef ptr @_ZNKSt7__cxx1112basic_stringIcSt11char_traitsIcESaIcEE4dataEv(ptr noundef nonnull align 8 dereferenceable(32) %6) #20
  %36 = call noundef i64 @_ZNKSt7__cxx1112basic_stringIcSt11char_traitsIcESaIcEE4sizeEv(ptr noundef nonnull align 8 dereferenceable(32) %5) #20
  %37 = icmp eq i64 %36, 0
  br i1 %37, label %_ZSteqIcEN9__gnu_cxx11__enable_ifIXsr9__is_charIT_EE7__valueEbE6__typeERKNSt7__cxx1112basic_stringIS2_St11char_traitsIS2_ESaIS2_EEESC_.exit, label %38

38:                                               ; preds = %33
  %bcmp.i = call i32 @bcmp(ptr %34, ptr %35, i64 %36)
  %39 = icmp eq i32 %bcmp.i, 0
  %40 = zext i1 %39 to i16
  %41 = or disjoint i16 %40, 256
  br label %_ZSteqIcEN9__gnu_cxx11__enable_ifIXsr9__is_charIT_EE7__valueEbE6__typeERKNSt7__cxx1112basic_stringIS2_St11char_traitsIS2_ESaIS2_EEESC_.exit

_ZSteqIcEN9__gnu_cxx11__enable_ifIXsr9__is_charIT_EE7__valueEbE6__typeERKNSt7__cxx1112basic_stringIS2_St11char_traitsIS2_ESaIS2_EEESC_.exit: ; preds = %29, %33, %38
  %.sroa.0.0.insert.ext = phi i16 [ 256, %29 ], [ %41, %38 ], [ 257, %33 ]
  store i16 %.sroa.0.0.insert.ext, ptr %3, align 1
  br label %_ZNSt8optionalIbE5resetEv.exit14

_ZNSt8optionalIbE5resetEv.exit14:                 ; preds = %28, %24, %21, %_ZSteqIcEN9__gnu_cxx11__enable_ifIXsr9__is_charIT_EE7__valueEbE6__typeERKNSt7__cxx1112basic_stringIS2_St11char_traitsIS2_ESaIS2_EEESC_.exit
  %.011 = phi i1 [ true, %_ZSteqIcEN9__gnu_cxx11__enable_ifIXsr9__is_charIT_EE7__valueEbE6__typeERKNSt7__cxx1112basic_stringIS2_St11char_traitsIS2_ESaIS2_EEESC_.exit ], [ false, %21 ], [ true, %24 ], [ true, %28 ]
  call void @_ZNSt7__cxx1112basic_stringIcSt11char_traitsIcESaIcEED1Ev(ptr noundef nonnull align 8 dereferenceable(32) %6) #20
  br label %_ZNSt8optionalIbE5resetEv.exit

_ZNSt8optionalIbE5resetEv.exit:                   ; preds = %16, %12, %9, %_ZNSt8optionalIbE5resetEv.exit14
  %.1 = phi i1 [ %.011, %_ZNSt8optionalIbE5resetEv.exit14 ], [ false, %9 ], [ true, %12 ], [ true, %16 ]
  call void @_ZNSt7__cxx1112basic_stringIcSt11char_traitsIcESaIcEED1Ev(ptr noundef nonnull align 8 dereferenceable(32) %5) #20
  ret i1 %.1

42:                                               ; preds = %22, %10
  %.pn = phi { ptr, i32 } [ %23, %22 ], [ %11, %10 ]
  call void @_ZNSt7__cxx1112basic_stringIcSt11char_traitsIcESaIcEED1Ev(ptr noundef nonnull align 8 dereferenceable(32) %5) #20
  resume { ptr, i32 } %.pn
}